target datalayout = "e-m:e-p270:32:32-p271:32:32-p272:64:64-i64:64-i128:128-f80:128-n8:16:32:64-S128"
target triple = "x86_64-pc-linux-gnu"

%struct.expert_field = type { i32, i32 }
%struct._asn1_ctx_t = type { i32, i32, i8, ptr, ptr, ptr, ptr, ptr, %struct.anon, %struct.anon.2, %struct.anon.3, ptr }
%struct.anon = type { i32, i8, i8, i8, ptr, ptr, i32, i32, ptr, ptr, ptr, %union.anon }
%union.anon = type { %struct.anon.0 }
%struct.anon.0 = type { ptr }
%struct.anon.2 = type { ptr, ptr, ptr }
%struct.anon.3 = type { i32, i8, ptr, i32, i32, ptr, ptr, ptr, %union.anon.4 }
%union.anon.4 = type { %struct.anon.5 }
%struct.anon.5 = type { ptr }

@hf_oer_open_type_length = internal global i32 0, align 4
@ett_oer_open_type = internal global i32 0, align 4
@ei_oer_open_type = internal global %struct.expert_field zeroinitializer, align 4
@.str.50 = private unnamed_addr constant [13 x i8] c"OCTET STRING\00", align 1

; Function Attrs: nounwind uwtable
define internal i32 @dissect_oer_open_type_internal(ptr noundef %0, i32 noundef %1, ptr noundef %2, ptr noundef %3, i32 noundef %4, ptr noundef %5, i32 noundef %6) #0 {
  %8 = alloca ptr, align 8
  %9 = alloca i32, align 4
  %10 = alloca ptr, align 8
  %11 = alloca ptr, align 8
  %12 = alloca i32, align 4
  %13 = alloca ptr, align 8
  %14 = alloca i32, align 4
  %15 = alloca i32, align 4
  %16 = alloca i32, align 4
  %17 = alloca ptr, align 8
  %18 = alloca ptr, align 8
  store ptr %0, ptr %8, align 8
  store i32 %1, ptr %9, align 4
  store ptr %2, ptr %10, align 8
  store ptr %3, ptr %11, align 8
  store i32 %4, ptr %12, align 4
  store ptr %5, ptr %13, align 8
  store i32 %6, ptr %14, align 4
  store ptr null, ptr %17, align 8
  %19 = load ptr, ptr %11, align 8
  store ptr %19, ptr %18, align 8
  %20 = load i32, ptr %9, align 4
  store i32 %20, ptr %16, align 4
  %21 = load ptr, ptr %8, align 8
  %22 = load i32, ptr %9, align 4
  %23 = load ptr, ptr %10, align 8
  %24 = load ptr, ptr %11, align 8
  %25 = load i32, ptr @hf_oer_open_type_length, align 4
  %26 = call i32 @dissect_oer_length_determinant(ptr noundef %21, i32 noundef %22, ptr noundef %23, ptr noundef %24, i32 noundef %25, ptr noundef %15)
  store i32 %26, ptr %9, align 4
  %27 = load ptr, ptr %8, align 8
  %28 = load i32, ptr %9, align 4
  %29 = load i32, ptr %15, align 4
  %30 = call ptr @tvb_new_subset_length(ptr noundef %27, i32 noundef %28, i32 noundef %29)
  store ptr %30, ptr %17, align 8
  %31 = load ptr, ptr %11, align 8
  %32 = load i32, ptr %12, align 4
  %33 = load ptr, ptr %17, align 8
  %34 = load i32, ptr %15, align 4
  %35 = call ptr @proto_tree_add_item(ptr noundef %31, i32 noundef %32, ptr noundef %33, i32 noundef 0, i32 noundef %34, i32 noundef 0)
  %36 = load ptr, ptr %10, align 8
  %37 = getelementptr inbounds %struct._asn1_ctx_t, ptr %36, i32 0, i32 4
  store ptr %35, ptr %37, align 8
  %38 = load ptr, ptr %10, align 8
  %39 = getelementptr inbounds %struct._asn1_ctx_t, ptr %38, i32 0, i32 4
  %40 = load ptr, ptr %39, align 8
  %41 = load i32, ptr @ett_oer_open_type, align 4
  %42 = call ptr @proto_item_add_subtree(ptr noundef %40, i32 noundef %41)
  store ptr %42, ptr %18, align 8
  %43 = load i32, ptr %14, align 4
  %44 = icmp eq i32 %43, 1
  br i1 %44, label %45, label %50

45:                                               ; preds = %7
  %46 = load ptr, ptr %10, align 8
  %47 = getelementptr inbounds %struct._asn1_ctx_t, ptr %46, i32 0, i32 3
  %48 = load ptr, ptr %47, align 8
  %49 = load ptr, ptr %17, align 8
  call void @add_new_data_source(ptr noundef %48, ptr noundef %49, ptr noundef @.str.50)
  br label %50

50:                                               ; preds = %45, %7
  %51 = load ptr, ptr %13, align 8
  %52 = icmp ne ptr %51, null
  br i1 %52, label %53, label %75

53:                                               ; preds = %50
  %54 = load i32, ptr %14, align 4
  switch i32 %54, label %74 [
    i32 0, label %55
    i32 1, label %62
    i32 2, label %73
  ]

55:                                               ; preds = %53
  %56 = load ptr, ptr %13, align 8
  %57 = load ptr, ptr %17, align 8
  %58 = load ptr, ptr %10, align 8
  %59 = load ptr, ptr %11, align 8
  %60 = load i32, ptr %12, align 4
  %61 = call i32 %56(ptr noundef %57, i32 noundef 0, ptr noundef %58, ptr noundef %59, i32 noundef %60)
  br label %74

62:                                               ; preds = %53
  %63 = load ptr, ptr %13, align 8
  %64 = load ptr, ptr %17, align 8
  %65 = load ptr, ptr %10, align 8
  %66 = getelementptr inbounds %struct._asn1_ctx_t, ptr %65, i32 0, i32 3
  %67 = load ptr, ptr %66, align 8
  %68 = load ptr, ptr %18, align 8
  %69 = load ptr, ptr %10, align 8
  %70 = getelementptr inbounds %struct._asn1_ctx_t, ptr %69, i32 0, i32 7
  %71 = load ptr, ptr %70, align 8
  %72 = call i32 %63(ptr noundef %64, ptr noundef %67, ptr noundef %68, ptr noundef %71)
  br label %74

73:                                               ; preds = %53
  br label %74

74:                                               ; preds = %73, %62, %55, %53
  br label %88

75:                                               ; preds = %50
  %76 = load ptr, ptr %11, align 8
  %77 = load ptr, ptr %10, align 8
  %78 = getelementptr inbounds %struct._asn1_ctx_t, ptr %77, i32 0, i32 3
  %79 = load ptr, ptr %78, align 8
  %80 = load ptr, ptr %8, align 8
  %81 = load i32, ptr %16, align 4
  %82 = load i32, ptr %9, align 4
  %83 = load i32, ptr %16, align 4
  %84 = sub i32 %82, %83
  %85 = call ptr @proto_tree_add_expert(ptr noundef %76, ptr noundef %79, ptr noundef @ei_oer_open_type, ptr noundef %80, i32 noundef %81, i32 noundef %84)
  %86 = load ptr, ptr %10, align 8
  %87 = getelementptr inbounds %struct._asn1_ctx_t, ptr %86, i32 0, i32 4
  store ptr %85, ptr %87, align 8
  br label %88

88:                                               ; preds = %75, %74
  %89 = load i32, ptr %9, align 4
  ret i32 %89
}

; Function Attrs: nounwind uwtable
define i32 @dissect_oer_open_type(ptr noundef %0, i32 noundef %1, ptr noundef %2, ptr noundef %3, i32 noundef %4, ptr noundef %5) #0 {
  %7 = alloca ptr, align 8
  %8 = alloca i32, align 4
  %9 = alloca ptr, align 8
  %10 = alloca ptr, align 8
  %11 = alloca i32, align 4
  %12 = alloca ptr, align 8
  store ptr %0, ptr %7, align 8
  store i32 %1, ptr %8, align 4
  store ptr %2, ptr %9, align 8
  store ptr %3, ptr %10, align 8
  store i32 %4, ptr %11, align 4
  store ptr %5, ptr %12, align 8
  %13 = load ptr, ptr %7, align 8
  %14 = load i32, ptr %8, align 4
  %15 = load ptr, ptr %9, align 8
  %16 = load ptr, ptr %10, align 8
  %17 = load i32, ptr %11, align 4
  %18 = load ptr, ptr %12, align 8
  %19 = call i32 @dissect_oer_open_type_internal(ptr noundef %13, i32 noundef %14, ptr noundef %15, ptr noundef %16, i32 noundef %17, ptr noundef %18, i32 noundef 0)
  ret i32 %19
}