; Function Attrs: nounwind uwtable
define noundef i32 @dissect_oer_open_type(ptr noundef %0, i32 noundef %1, ptr noundef %2, ptr noundef %3, i32 noundef %4, ptr noundef readonly %5) local_unnamed_addr #0 {
  %7 = alloca i32, align 4
  call void @llvm.lifetime.start.p0(i64 4, ptr nonnull %7)
  %8 = load i32, ptr @hf_oer_open_type_length, align 4
  %9 = call fastcc i32 @dissect_oer_length_determinant(ptr noundef %0, i32 noundef %1, ptr noundef %2, ptr noundef %3, i32 noundef %8, ptr noundef %7)
  %10 = load i32, ptr %7, align 4
  %11 = tail call ptr @tvb_new_subset_length(ptr noundef %0, i32 noundef %9, i32 noundef %10) #8
  %12 = tail call ptr @proto_tree_add_item(ptr noundef %3, i32 noundef %4, ptr noundef %11, i32 noundef 0, i32 noundef %10, i32 noundef 0) #8
  %13 = getelementptr inbounds nuw i8, ptr %2, i64 24
  store ptr %12, ptr %13, align 8
  %14 = load i32, ptr @ett_oer_open_type, align 4
  %15 = tail call ptr @proto_item_add_subtree(ptr noundef %12, i32 noundef %14) #8
  %.not.i = icmp eq ptr %5, null
  br i1 %.not.i, label %18, label %16

16:                                               ; preds = %6
  %17 = tail call i32 %5(ptr noundef %11, i32 noundef 0, ptr noundef nonnull %2, ptr noundef %3, i32 noundef %4) #8
  br label %dissect_oer_open_type_internal.exit

18:                                               ; preds = %6
  %19 = getelementptr inbounds nuw i8, ptr %2, i64 16
  %20 = load ptr, ptr %19, align 8
  %21 = sub i32 %9, %1
  %22 = tail call ptr @proto_tree_add_expert(ptr noundef %3, ptr noundef %20, ptr noundef nonnull @ei_oer_open_type, ptr noundef %0, i32 noundef %1, i32 noundef %21) #8
  store ptr %22, ptr %13, align 8
  br label %dissect_oer_open_type_internal.exit

dissect_oer_open_type_internal.exit:              ; preds = %16, %18
  call void @llvm.lifetime.end.p0(i64 4, ptr nonnull %7)
  ret i32 %9
}